Certificate:
    Data:
        Version: 3 (0x2)
        Serial Number: 1 (0x1)
    Signature Algorithm: sha256WithRSAEncryption
        Issuer: C=ES, ST=Catalunya, L=Barcelona, O=Universitat Oberta de Catalunya, OU=MISTIC, CN=CA TFM 2019
        Validity
            Not Before: Mar 28 17:26:36 2019 GMT
            Not After : Sep 24 17:26:36 2019 GMT
        Subject: C=ES, ST=Catalunya, L=Barcelona, O=Universitat Oberta de Catalunya, OU=MISTIC, CN=Server
        Subject Public Key Info:
            Public Key Algorithm: rsaEncryption
                Public-Key: (4096 bit)
                Modulus:
                    00:b6:fc:c3:6a:03:1e:e8:d4:34:67:d5:12:47:7c:
                    c5:ad:19:23:35:25:f0:66:9c:b7:24:15:78:fa:34:
                    fe:5c:6f:3a:c8:5d:b4:19:ad:b3:11:46:f5:c6:3d:
                    f0:72:90:c0:93:19:19:8a:6e:bf:01:d9:31:4f:d6:
                    8b:7a:7c:f4:b6:75:ed:7e:ae:13:0e:64:14:9a:f8:
                    21:87:de:76:df:a2:f7:37:33:94:7e:03:cd:aa:30:
                    1b:6d:65:e3:60:d8:59:00:86:36:07:c4:81:b4:0b:
                    8d:36:4b:6b:62:ee:fe:e3:80:0b:58:fd:a6:02:b6:
                    f3:1a:91:f7:9b:dd:3a:fc:77:11:47:0c:86:58:90:
                    2a:04:70:37:23:2d:96:60:0c:0a:cc:b4:a9:ef:2c:
                    ed:32:40:48:c6:9c:73:47:bb:04:04:c2:58:ac:47:
                    ba:29:19:df:f0:29:e4:11:aa:d4:41:94:b7:2e:fb:
                    16:34:f0:6d:19:95:f3:3f:40:4e:c5:42:cd:9e:0a:
                    98:01:0e:d1:75:fa:7f:af:d8:d4:c5:3b:17:98:2d:
                    fa:14:7a:7f:d9:d4:8f:de:a5:63:ae:4f:ed:79:fe:
                    45:df:75:ac:f2:31:a7:9c:cd:d6:dd:4e:0d:db:ed:
                    ac:8e:6c:8c:ab:cf:8b:71:95:b7:f9:1b:6c:fa:48:
                    40:c7:1d:4a:95:d6:84:84:5d:7d:80:13:88:52:a9:
                    7f:58:76:0d:0c:db:42:26:b1:df:f2:7d:68:12:d3:
                    b5:c5:21:09:6a:b3:c3:c5:40:97:af:20:8f:2a:3d:
                    98:ab:cb:bb:2c:fe:5f:b5:14:48:5b:e6:cf:55:5d:
                    43:87:fc:db:06:c2:c5:fe:1b:af:82:f2:03:35:34:
                    57:9c:e2:11:f2:63:08:fa:1f:67:18:b0:58:cc:33:
                    d6:b8:f1:38:bf:40:25:18:f0:ba:d7:b0:c5:b9:bd:
                    79:7c:98:27:65:7e:18:15:b2:b6:5d:02:e3:62:eb:
                    1c:d2:c7:7d:8a:81:a3:43:43:bd:6a:58:8a:b4:44:
                    e3:3d:e4:03:d6:3a:af:11:a3:03:c0:87:2b:e4:77:
                    e6:e9:43:48:8d:d8:59:f3:63:6c:09:96:ec:2c:83:
                    cf:8c:9d:7e:8e:e7:65:e1:82:49:f9:27:48:9e:60:
                    31:17:bf:4a:84:bc:2a:3c:2e:93:f0:24:3a:26:b2:
                    e6:e8:56:ab:b4:a6:a2:85:7b:e4:ab:c4:cf:2b:4f:
                    c6:20:b3:ba:6b:7c:5d:b2:e6:79:6e:57:04:0a:1f:
                    a2:d4:85:04:66:ac:7a:1a:73:a2:fc:3a:c5:25:79:
                    b3:76:1e:00:c8:f7:74:22:6f:54:c5:20:68:ce:d5:
                    f3:53:61
                Exponent: 65537 (0x10001)
        X509v3 extensions:
            X509v3 Subject Key Identifier: 
                B0:56:00:19:65:2B:92:F9:4A:C4:44:DC:82:B6:1D:73:61:AC:17:DA
            X509v3 Authority Key Identifier: 
                keyid:F6:06:FB:B6:E7:BC:19:95:82:F7:D9:32:F6:06:1A:79:98:6F:19:9E
                DirName:/C=ES/ST=Catalunya/L=Barcelona/O=Universitat Oberta de Catalunya/OU=MISTIC/CN=CA TFM 2019
                serial:A8:04:0C:D1:0F:8C:05:50

            X509v3 Basic Constraints: critical
                CA:FALSE
            X509v3 Extended Key Usage: 
                TLS Web Server Authentication
            X509v3 Key Usage: 
                Digital Signature, Key Encipherment
            X509v3 Subject Alternative Name: 
                IP Address:127.0.0.1
            Authority Information Access: 
                CA Issuers - URI:http://localhost/ca.html

            X509v3 CRL Distribution Points: 

                Full Name:
                  URI:http://localhost

            Netscape Comment: 
                Servidor SSL/TLS
            Netscape Cert Type: 
                SSL Server
            Netscape CA Revocation Url: 
                http://localhost/ca-crl.pem
    Signature Algorithm: sha256WithRSAEncryption
         65:f0:65:96:98:b5:ae:0f:29:c5:5e:f5:be:af:8f:90:5a:66:
         c5:fa:57:4e:66:71:10:ca:3d:e5:72:78:8c:1f:7a:59:be:49:
         82:a8:9a:03:d8:f6:84:d0:24:6e:f7:57:02:37:ab:ac:85:58:
         26:5f:2a:3f:f5:25:58:e1:d0:77:95:fa:76:dc:68:2b:ce:26:
         40:55:65:a8:5e:3b:67:1e:89:ce:92:f7:f6:53:6a:f7:7d:61:
         71:4a:6b:f7:8f:c2:6c:ed:36:89:31:26:54:17:a0:8a:6d:ec:
         25:5e:7c:56:ce:93:0c:85:26:c5:0a:62:51:b6:fb:bd:5c:6c:
         29:20:4f:40:17:68:35:47:63:39:51:48:04:f7:18:82:36:d7:
         9d:18:7e:fe:8a:36:30:44:ce:e7:8b:d7:a3:53:af:3d:52:0e:
         42:ce:73:a5:db:3b:c7:c3:3c:40:b9:10:eb:85:d5:e9:68:63:
         fd:fc:51:84:64:67:68:31:ba:82:78:b7:8b:23:20:d3:15:18:
         75:b1:41:9b:3f:60:31:a5:16:e7:99:27:b7:ad:65:b8:2b:06:
         6b:5a:af:a8:01:ca:92:28:86:e4:e2:60:8f:fb:0c:ed:dd:dd:
         89:fb:6d:77:c6:3d:53:1a:d5:32:b1:34:0f:2a:ed:c8:cd:75:
         9e:c1:d1:71:4a:99:89:4e:a8:ea:c7:91:9f:69:ec:bb:1a:db:
         0c:6c:18:63:83:36:1d:7f:a2:17:74:2a:d8:35:a3:9f:3b:d4:
         89:af:af:25:99:31:27:9e:58:93:f5:bd:5b:80:2b:40:88:20:
         2b:e9:d5:e4:29:39:06:75:8d:70:1b:9e:5f:88:1c:63:1d:bc:
         72:ec:84:dd:9d:22:80:4a:c8:ef:7c:fa:19:0e:d2:9d:d4:33:
         ed:b9:7f:b2:8d:d6:89:d5:fa:36:55:c7:6c:73:fe:fb:f3:4b:
         1f:75:37:d5:dc:ae:a0:cd:e2:94:26:12:b1:7a:82:43:4b:4a:
         24:cc:9e:bd:96:78:6c:a0:02:50:8b:bf:19:cf:e8:10:37:8f:
         3b:22:3d:1b:90:13:be:10:d9:c3:9b:a8:ce:80:ee:68:3d:4f:
         c8:44:dd:62:1c:00:d5:c4:36:a1:aa:67:d2:ab:de:21:c2:69:
         c6:21:3d:38:c5:5e:aa:48:4e:72:eb:70:27:b4:9b:96:b0:75:
         54:b6:3d:45:1f:4c:7e:01:40:df:48:74:dc:85:a3:3f:49:66:
         07:72:bc:ee:ea:1f:b1:81:02:27:e8:ae:d3:3c:6a:ce:72:42:
         be:93:76:5a:1d:22:d1:a4:2d:3e:25:52:b8:78:a7:95:25:47:
         66:70:10:a8:c8:74:e0:03:de:aa:c0:b9:47:40:96:fc:cf:ee:
         a5:a8:77:75:ba:92:c7:17:43:2c:87:99:f0:e1:e9:61:27:bf:
         14:26:c1:f1:47:1f:f9:60:c3:1b:2b:3c:73:71:f7:22:11:2b:
         93:0a:3a:17:77:a9:a0:aa:0e:03:b7:c8:0c:c3:48:b2:68:91:
         86:b3:85:3d:21:0c:43:45:ed:5e:99:3a:81:61:a0:2d:ac:88:
         c5:a7:3c:22:b5:17:81:ae:3d:fd:75:a4:4a:13:00:c7:85:b4:
         2a:8a:6b:29:32:22:49:c5:98:9a:d8:31:fa:16:5d:8f:07:9a:
         85:e1:cd:77:05:fe:74:c4:d3:63:62:fc:23:75:1d:ba:1c:d0:
         0e:8d:61:2d:f9:07:60:36:79:e8:2f:7b:f5:e4:e8:16:08:f8:
         69:4e:c3:10:84:47:2a:df:ec:19:df:22:6a:5c:e8:eb:53:e7:
         00:b1:89:29:ab:8f:f9:45:a9:c0:c6:1f:c9:c0:41:31:00:56:
         6b:c1:04:b0:3d:67:ab:3a:64:1a:3f:12:19:b6:b7:4b:9e:4a:
         f7:73:8c:7a:23:80:27:c3:a5:89:9c:10:f7:b0:5a:37:05:96:
         af:07:b8:f2:bc:93:4a:f5:1a:51:eb:c6:8e:d5:8b:e7:a4:1d:
         f0:f5:94:f6:9f:3d:03:9a:4c:a0:4f:fa:78:8c:cb:85:2b:c8:
         98:e4:cd:0f:a7:76:68:47:df:6d:7d:75:d8:04:c7:dd:bb:17:
         87:ad:78:72:ba:f5:4a:f1:c7:b6:30:f7:ba:0f:ab:e3:07:bf:
         7d:3c:e0:99:fb:95:5c:ec:09:4a:03:af:9a:8f:6e:40:1b:2f:
         52:86:9a:80:f5:e2:c8:3d:b6:0a:17:8e:dc:44:4d:f4:f9:7c:
         79:c6:4c:8a:e1:d3:ce:f8:53:51:d6:83:82:49:68:dd:6c:04:
         1d:cb:d6:e4:df:1b:51:1b:db:c9:07:a4:f3:13:c6:f0:3d:31:
         e2:26:67:b0:0e:8e:77:d5:9b:00:28:c6:55:34:64:c5:3a:1f:
         19:3f:40:2d:eb:45:50:e0:33:73:7b:63:9b:1b:b0:e3:b2:8e:
         5f:6b:52:8e:72:80:5e:f7:f3:0b:1e:50:22:ad:1a:ec:ba:1b:
         0b:47:b3:82:f4:4a:0b:47:9d:e0:e5:c7:9d:73:d9:5b:07:b5:
         fd:17:c2:45:89:c1:f6:8b:19:38:f8:39:5d:26:92:c9:54:74:
         16:75:a7:c7:81:d4:7a:02:ce:f0:39:0c:d4:6a:e3:f7:0a:a0:
         cc:17:7d:ef:3c:2f:7a:2c:95:ca:20:eb:2f:f6:02:b7:3d:d3:
         6d:cd:fa:62:b4:58:22:1b:70:e2:e2:94:d4:5a:34:1e
-----BEGIN CERTIFICATE-----
MIIJYTCCBUmgAwIBAgIBATANBgkqhkiG9w0BAQsFADCBhjELMAkGA1UEBhMCRVMx
EjAQBgNVBAgTCUNhdGFsdW55YTESMBAGA1UEBxMJQmFyY2Vsb25hMSgwJgYDVQQK
Ex9Vbml2ZXJzaXRhdCBPYmVydGEgZGUgQ2F0YWx1bnlhMQ8wDQYDVQQLEwZNSVNU
SUMxFDASBgNVBAMTC0NBIFRGTSAyMDE5MB4XDTE5MDMyODE3MjYzNloXDTE5MDky
NDE3MjYzNlowgYExCzAJBgNVBAYTAkVTMRIwEAYDVQQIEwlDYXRhbHVueWExEjAQ
BgNVBAcTCUJhcmNlbG9uYTEoMCYGA1UEChMfVW5pdmVyc2l0YXQgT2JlcnRhIGRl
IENhdGFsdW55YTEPMA0GA1UECxMGTUlTVElDMQ8wDQYDVQQDEwZTZXJ2ZXIwggIi
MA0GCSqGSIb3DQEBAQUAA4ICDwAwggIKAoICAQC2/MNqAx7o1DRn1RJHfMWtGSM1
JfBmnLckFXj6NP5cbzrIXbQZrbMRRvXGPfBykMCTGRmKbr8B2TFP1ot6fPS2de1+
rhMOZBSa+CGH3nbfovc3M5R+A82qMBttZeNg2FkAhjYHxIG0C402S2ti7v7jgAtY
/aYCtvMakfeb3Tr8dxFHDIZYkCoEcDcjLZZgDArMtKnvLO0yQEjGnHNHuwQEwlis
R7opGd/wKeQRqtRBlLcu+xY08G0ZlfM/QE7FQs2eCpgBDtF1+n+v2NTFOxeYLfoU
en/Z1I/epWOuT+15/kXfdazyMaeczdbdTg3b7ayObIyrz4txlbf5G2z6SEDHHUqV
1oSEXX2AE4hSqX9Ydg0M20Imsd/yfWgS07XFIQlqs8PFQJevII8qPZiry7ss/l+1
FEhb5s9VXUOH/NsGwsX+G6+C8gM1NFec4hHyYwj6H2cYsFjMM9a48Ti/QCUY8LrX
sMW5vXl8mCdlfhgVsrZdAuNi6xzSx32KgaNDQ71qWIq0ROM95APWOq8RowPAhyvk
d+bpQ0iN2FnzY2wJluwsg8+MnX6O52Xhgkn5J0ieYDEXv0qEvCo8LpPwJDomsubo
Vqu0pqKFe+SrxM8rT8Ygs7prfF2y5nluVwQKH6LUhQRmrHoac6L8OsUlebN2HgDI
93Qib1TFIGjO1fNTYQIDAQABo4IB2zCCAdcwHQYDVR0OBBYEFLBWABllK5L5SsRE
3IK2HXNhrBfaMIG7BgNVHSMEgbMwgbCAFPYG+7bnvBmVgvfZMvYGGnmYbxmeoYGM
pIGJMIGGMQswCQYDVQQGEwJFUzESMBAGA1UECBMJQ2F0YWx1bnlhMRIwEAYDVQQH
EwlCYXJjZWxvbmExKDAmBgNVBAoTH1VuaXZlcnNpdGF0IE9iZXJ0YSBkZSBDYXRh
bHVueWExDzANBgNVBAsTBk1JU1RJQzEUMBIGA1UEAxMLQ0EgVEZNIDIwMTmCCQCo
BAzRD4wFUDAMBgNVHRMBAf8EAjAAMBMGA1UdJQQMMAoGCCsGAQUFBwMBMAsGA1Ud
DwQEAwIFoDAPBgNVHREECDAGhwR/AAABMDQGCCsGAQUFBwEBBCgwJjAkBggrBgEF
BQcwAoYYaHR0cDovL2xvY2FsaG9zdC9jYS5odG1sMCEGA1UdHwQaMBgwFqAUoBKG
EGh0dHA6Ly9sb2NhbGhvc3QwHwYJYIZIAYb4QgENBBIWEFNlcnZpZG9yIFNTTC9U
TFMwEQYJYIZIAYb4QgEBBAQDAgZAMCoGCWCGSAGG+EIBBAQdFhtodHRwOi8vbG9j
YWxob3N0L2NhLWNybC5wZW0wDQYJKoZIhvcNAQELBQADggQBAGXwZZaYta4PKcVe
9b6vj5BaZsX6V05mcRDKPeVyeIwfelm+SYKomgPY9oTQJG73VwI3q6yFWCZfKj/1
JVjh0HeV+nbcaCvOJkBVZaheO2ceic6S9/ZTavd9YXFKa/ePwmztNokxJlQXoIpt
7CVefFbOkwyFJsUKYlG2+71cbCkgT0AXaDVHYzlRSAT3GII2150Yfv6KNjBEzueL
16NTrz1SDkLOc6XbO8fDPEC5EOuF1eloY/38UYRkZ2gxuoJ4t4sjINMVGHWxQZs/
YDGlFueZJ7etZbgrBmtar6gBypIohuTiYI/7DO3d3Yn7bXfGPVMa1TKxNA8q7cjN
dZ7B0XFKmYlOqOrHkZ9p7Lsa2wxsGGODNh1/ohd0Ktg1o5871ImvryWZMSeeWJP1
vVuAK0CIICvp1eQpOQZ1jXAbnl+IHGMdvHLshN2dIoBKyO98+hkO0p3UM+25f7KN
1onV+jZVx2xz/vvzSx91N9XcrqDN4pQmErF6gkNLSiTMnr2WeGygAlCLvxnP6BA3
jzsiPRuQE74Q2cObqM6A7mg9T8hE3WIcANXENqGqZ9Kr3iHCacYhPTjFXqpITnLr
cCe0m5awdVS2PUUfTH4BQN9IdNyFoz9JZgdyvO7qH7GBAifortM8as5yQr6Tdlod
ItGkLT4lUrh4p5UlR2ZwEKjIdOAD3qrAuUdAlvzP7qWod3W6kscXQyyHmfDh6WEn
vxQmwfFHH/lgwxsrPHNx9yIRK5MKOhd3qaCqDgO3yAzDSLJokYazhT0hDENF7V6Z
OoFhoC2siMWnPCK1F4GuPf11pEoTAMeFtCqKaykyIknFmJrYMfoWXY8HmoXhzXcF
/nTE02Ni/CN1Hboc0A6NYS35B2A2eegve/Xk6BYI+GlOwxCERyrf7BnfImpc6OtT
5wCxiSmrj/lFqcDGH8nAQTEAVmvBBLA9Z6s6ZBo/Ehm2t0ueSvdzjHojgCfDpYmc
EPewWjcFlq8HuPK8k0r1GlHrxo7Vi+ekHfD1lPafPQOaTKBP+niMy4UryJjkzQ+n
dmhH3219ddgEx927F4eteHK69Urxx7Yw97oPq+MHv3084Jn7lVzsCUoDr5qPbkAb
L1KGmoD14sg9tgoXjtxETfT5fHnGTIrh0874U1HWg4JJaN1sBB3L1uTfG1Eb28kH
pPMTxvA9MeImZ7AOjnfVmwAoxlU0ZMU6Hxk/QC3rRVDgM3N7Y5sbsOOyjl9rUo5y
gF738wseUCKtGuy6GwtHs4L0SgtHneDlx51z2VsHtf0XwkWJwfaLGTj4OV0mkslU
dBZ1p8eB1HoCzvA5DNRq4/cKoMwXfe88L3oslcog6y/2Arc9023N+mK0WCIbcOLi
lNRaNB4=
-----END CERTIFICATE-----
